; Function Attrs: nounwind uwtable
define void @Acec_MultFuncTest6() local_unnamed_addr #0 {
  %1 = alloca i64, align 8
  %2 = alloca i64, align 8
  %3 = alloca i64, align 8
  %4 = tail call noalias dereferenceable_or_null(16) ptr @malloc(i64 noundef 16) #13
  %5 = getelementptr inbounds nuw i8, ptr %4, i64 4
  store i32 0, ptr %5, align 4, !tbaa !3
  store i32 10000, ptr %4, align 8, !tbaa !15
  %6 = tail call noalias dereferenceable_or_null(80000) ptr @malloc(i64 noundef 80000) #13
  %7 = getelementptr inbounds nuw i8, ptr %4, i64 8
  store ptr %6, ptr %7, align 8, !tbaa !10
  call void @llvm.lifetime.start.p0(i64 8, ptr nonnull %1) #11
  call void @llvm.lifetime.start.p0(i64 8, ptr nonnull %2) #11
  store i64 -81985529216486896, ptr %2, align 8, !tbaa !11
  call void @llvm.lifetime.start.p0(i64 8, ptr nonnull %3) #11
  %8 = tail call i64 @Extra_TruthCanonNPN3(i64 noundef -81985529216486896, i32 noundef 6, ptr noundef nonnull %4)
  store i64 %8, ptr %3, align 8, !tbaa !11
  %9 = load ptr, ptr @stdout, align 8, !tbaa !20
  call void @Extra_PrintHex(ptr noundef %9, ptr noundef nonnull %2, i32 noundef 6) #11
  %putchar = call i32 @putchar(i32 10)
  %10 = load ptr, ptr @stdout, align 8, !tbaa !20
  call void @Extra_PrintHex(ptr noundef %10, ptr noundef nonnull %3, i32 noundef 6) #11
  %putchar8 = call i32 @putchar(i32 10)
  %.val = load i32, ptr %5, align 4, !tbaa !3
  %11 = call i32 (ptr, ...) @printf(ptr noundef nonnull dereferenceable(1) @.str.1, i32 noundef %.val)
  %12 = icmp sgt i32 %.val, 0
  %.pre = load ptr, ptr %7, align 8, !tbaa !10
  br i1 %12, label %.lr.ph, label %.critedge

.lr.ph:                                           ; preds = %0
  %wide.trip.count = zext nneg i32 %.val to i64
  br label %13

13:                                               ; preds = %.lr.ph, %21
  %indvars.iv = phi i64 [ 0, %.lr.ph ], [ %indvars.iv.next, %21 ]
  %14 = getelementptr inbounds nuw i64, ptr %.pre, i64 %indvars.iv
  %15 = load i64, ptr %14, align 8, !tbaa !11
  store i64 %15, ptr %1, align 8, !tbaa !11
  %16 = load ptr, ptr @stdout, align 8, !tbaa !20
  call void @Extra_PrintHex(ptr noundef %16, ptr noundef nonnull %1, i32 noundef 6) #11
  %17 = call i32 (ptr, ...) @printf(ptr noundef nonnull dereferenceable(1) @.str.2)
  %18 = and i64 %indvars.iv, 7
  %19 = icmp eq i64 %18, 7
  br i1 %19, label %20, label %21

20:                                               ; preds = %13
  %putchar9 = call i32 @putchar(i32 10)
  br label %21

21:                                               ; preds = %13, %20
  %indvars.iv.next = add nuw nsw i64 %indvars.iv, 1
  %exitcond.not = icmp eq i64 %indvars.iv.next, %wide.trip.count
  br i1 %exitcond.not, label %.critedge.thread, label %13, !llvm.loop !22

.critedge:                                        ; preds = %0
  %.not.i = icmp eq ptr %.pre, null
  br i1 %.not.i, label %Vec_WrdFree.exit, label %.critedge.thread

.critedge.thread:                                 ; preds = %21, %.critedge
  call void @free(ptr noundef nonnull %.pre) #11
  br label %Vec_WrdFree.exit

Vec_WrdFree.exit:                                 ; preds = %.critedge, %.critedge.thread
  call void @free(ptr noundef nonnull %4) #11
  call void @llvm.lifetime.end.p0(i64 8, ptr nonnull %3) #11
  call void @llvm.lifetime.end.p0(i64 8, ptr nonnull %2) #11
  call void @llvm.lifetime.end.p0(i64 8, ptr nonnull %1) #11
  ret void
}